; Function Attrs: mustprogress nofree norecurse nosync nounwind willreturn memory(argmem: read) uwtable
define noundef double @_ZNK6colvar9euler_phi5dist2ERK11colvarvalueS3_(ptr nocapture nonnull readnone align 8 %0, ptr nocapture noundef nonnull readonly align 8 dereferenceable(168) %1, ptr nocapture noundef nonnull readonly align 8 dereferenceable(168) %2) unnamed_addr #3 align 2 {
  %4 = getelementptr inbounds i8, ptr %1, i64 8
  %5 = load double, ptr %4, align 8
  %6 = getelementptr inbounds i8, ptr %2, i64 8
  %7 = load double, ptr %6, align 8
  %8 = fsub double %5, %7
  %9 = fcmp olt double %8, -1.800000e+02
  br i1 %9, label %10, label %12

10:                                               ; preds = %3
  %11 = fadd double %8, 3.600000e+02
  br label %16

12:                                               ; preds = %3
  %13 = fcmp ogt double %8, 1.800000e+02
  %14 = fadd double %8, -3.600000e+02
  %15 = select i1 %13, double %14, double %8
  br label %16

16:                                               ; preds = %12, %10
  %17 = phi double [ %11, %10 ], [ %15, %12 ]
  %18 = fmul double %17, %17
  ret double %18
}